; Function Attrs: mustprogress uwtable
define hidden noundef i32 @_ZN4cvc58internal6theory9datatypes5utils8isTesterENS0_12NodeTemplateILb1EEERS5_(ptr noundef %0, ptr noundef nonnull align 8 captures(none) dereferenceable(8) %1) local_unnamed_addr #3 personality ptr @__gxx_personality_v0 {
  %3 = alloca %"class.cvc5::internal::NodeTemplate", align 8
  %4 = alloca %"class.cvc5::internal::NodeTemplate", align 8
  %5 = load ptr, ptr %0, align 8, !tbaa !11
  %6 = getelementptr inbounds nuw i8, ptr %5, i64 8
  %7 = load i64, ptr %6, align 8
  %8 = and i64 %7, 1023
  %9 = icmp eq i64 %8, 226
  br i1 %9, label %10, label %_ZN4cvc58internal12NodeTemplateILb1EED2Ev.exit11

10:                                               ; preds = %2
  call void @llvm.lifetime.start.p0(i64 8, ptr nonnull %3) #22
  tail call void @llvm.experimental.noalias.scope.decl(metadata !47)
  %11 = tail call noundef i32 @_ZN4cvc58internal4kind10metaKindOfENS1_6Kind_tE(i32 noundef 226), !noalias !47
  %12 = icmp eq i32 %11, 2
  %13 = getelementptr inbounds nuw i8, ptr %5, i64 24
  %14 = zext i1 %12 to i64
  %15 = getelementptr inbounds nuw [0 x ptr], ptr %13, i64 0, i64 %14
  %16 = load ptr, ptr %15, align 8, !tbaa !24, !noalias !47
  store ptr %16, ptr %3, align 8, !tbaa !11, !alias.scope !47
  %17 = load i64, ptr %16, align 8, !noalias !47
  %18 = lshr i64 %17, 40
  %19 = trunc nuw nsw i64 %18 to i32
  %20 = and i32 %19, 1048575
  %21 = icmp samesign ult i32 %20, 1048574
  br i1 %21, label %22, label %27, !prof !9

22:                                               ; preds = %10
  %23 = add i64 %17, 1099511627776
  %24 = and i64 %23, 1152920405095219200
  %25 = and i64 %17, -1152920405095219201
  %26 = or disjoint i64 %24, %25
  store i64 %26, ptr %16, align 8, !noalias !47
  br label %_ZNK4cvc58internal12NodeTemplateILb1EEixEi.exit

27:                                               ; preds = %10
  %28 = icmp eq i32 %20, 1048574
  br i1 %28, label %29, label %_ZNK4cvc58internal12NodeTemplateILb1EEixEi.exit, !prof !10

29:                                               ; preds = %27
  %30 = or i64 %17, 1152920405095219200
  store i64 %30, ptr %16, align 8, !noalias !47
  tail call void @_ZN4cvc58internal4expr9NodeValue20markRefCountMaxedOutEv(ptr noundef nonnull align 8 dereferenceable(24) %16), !noalias !47
  br label %_ZNK4cvc58internal12NodeTemplateILb1EEixEi.exit

_ZNK4cvc58internal12NodeTemplateILb1EEixEi.exit:  ; preds = %22, %27, %29
  %31 = load ptr, ptr %1, align 8, !tbaa !11
  %.not.i = icmp eq ptr %31, %16
  br i1 %.not.i, label %_ZN4cvc58internal12NodeTemplateILb1EEaSERKS2_.exit, label %32, !prof !10

32:                                               ; preds = %_ZNK4cvc58internal12NodeTemplateILb1EEixEi.exit
  %33 = load i64, ptr %31, align 8
  %34 = and i64 %33, 1152920405095219200
  %.not.i.i = icmp eq i64 %34, 1152920405095219200
  br i1 %.not.i.i, label %_ZN4cvc58internal4expr9NodeValue3decEv.exit.i, label %35, !prof !10

35:                                               ; preds = %32
  %36 = add i64 %33, 1152920405095219200
  %37 = and i64 %36, 1152920405095219200
  %38 = and i64 %33, -1152920405095219201
  %39 = or disjoint i64 %37, %38
  store i64 %39, ptr %31, align 8
  %40 = icmp eq i64 %37, 0
  br i1 %40, label %41, label %_ZN4cvc58internal4expr9NodeValue3decEv.exit.i, !prof !10

41:                                               ; preds = %35
  invoke void @_ZN4cvc58internal4expr9NodeValue15markForDeletionEv(ptr noundef nonnull align 8 dereferenceable(24) %31)
          to label %_ZN4cvc58internal4expr9NodeValue3decEv.exit.i unwind label %84

_ZN4cvc58internal4expr9NodeValue3decEv.exit.i:    ; preds = %41, %35, %32
  store ptr %16, ptr %1, align 8, !tbaa !11
  %42 = load i64, ptr %16, align 8
  %43 = lshr i64 %42, 40
  %44 = trunc nuw nsw i64 %43 to i32
  %45 = and i32 %44, 1048575
  %46 = icmp samesign ult i32 %45, 1048574
  br i1 %46, label %47, label %52, !prof !9

47:                                               ; preds = %_ZN4cvc58internal4expr9NodeValue3decEv.exit.i
  %48 = add i64 %42, 1099511627776
  %49 = and i64 %48, 1152920405095219200
  %50 = and i64 %42, -1152920405095219201
  %51 = or disjoint i64 %49, %50
  store i64 %51, ptr %16, align 8
  br label %_ZN4cvc58internal12NodeTemplateILb1EEaSERKS2_.exit

52:                                               ; preds = %_ZN4cvc58internal4expr9NodeValue3decEv.exit.i
  %53 = icmp eq i32 %45, 1048574
  br i1 %53, label %54, label %_ZN4cvc58internal12NodeTemplateILb1EEaSERKS2_.exit, !prof !10

54:                                               ; preds = %52
  %55 = or i64 %42, 1152920405095219200
  store i64 %55, ptr %16, align 8
  invoke void @_ZN4cvc58internal4expr9NodeValue20markRefCountMaxedOutEv(ptr noundef nonnull align 8 dereferenceable(24) %16)
          to label %_ZN4cvc58internal12NodeTemplateILb1EEaSERKS2_.exit unwind label %84

_ZN4cvc58internal12NodeTemplateILb1EEaSERKS2_.exit: ; preds = %52, %47, %_ZNK4cvc58internal12NodeTemplateILb1EEixEi.exit, %54
  %56 = load i64, ptr %16, align 8
  %57 = and i64 %56, 1152920405095219200
  %.not.i.i7 = icmp eq i64 %57, 1152920405095219200
  br i1 %.not.i.i7, label %_ZN4cvc58internal12NodeTemplateILb1EED2Ev.exit, label %58, !prof !10

58:                                               ; preds = %_ZN4cvc58internal12NodeTemplateILb1EEaSERKS2_.exit
  %59 = add i64 %56, 1152920405095219200
  %60 = and i64 %59, 1152920405095219200
  %61 = and i64 %56, -1152920405095219201
  %62 = or disjoint i64 %60, %61
  store i64 %62, ptr %16, align 8
  %63 = icmp eq i64 %60, 0
  br i1 %63, label %64, label %_ZN4cvc58internal12NodeTemplateILb1EED2Ev.exit, !prof !10

64:                                               ; preds = %58
  invoke void @_ZN4cvc58internal4expr9NodeValue15markForDeletionEv(ptr noundef nonnull align 8 dereferenceable(24) %16)
          to label %_ZN4cvc58internal12NodeTemplateILb1EED2Ev.exit unwind label %65

65:                                               ; preds = %64
  %66 = landingpad { ptr, i32 }
          catch ptr null
  %67 = extractvalue { ptr, i32 } %66, 0
  tail call void @__clang_call_terminate(ptr %67) #21
  unreachable

_ZN4cvc58internal12NodeTemplateILb1EED2Ev.exit:   ; preds = %_ZN4cvc58internal12NodeTemplateILb1EEaSERKS2_.exit, %58, %64
  call void @llvm.lifetime.end.p0(i64 8, ptr nonnull %3) #22
  call void @_ZNK4cvc58internal12NodeTemplateILb1EE11getOperatorEv(ptr dead_on_unwind nonnull writable sret(%"class.cvc5::internal::NodeTemplate") align 8 %4, ptr noundef nonnull align 8 dereferenceable(8) %0)
  %68 = invoke noundef i64 @_ZN4cvc58internal6theory9datatypes5utils7indexOfENS0_12NodeTemplateILb1EEE(ptr noundef nonnull %4)
          to label %69 unwind label %86

69:                                               ; preds = %_ZN4cvc58internal12NodeTemplateILb1EED2Ev.exit
  %70 = trunc i64 %68 to i32
  %71 = load ptr, ptr %4, align 8, !tbaa !11
  %72 = load i64, ptr %71, align 8
  %73 = and i64 %72, 1152920405095219200
  %.not.i.i9 = icmp eq i64 %73, 1152920405095219200
  br i1 %.not.i.i9, label %_ZN4cvc58internal12NodeTemplateILb1EED2Ev.exit11, label %74, !prof !10

74:                                               ; preds = %69
  %75 = add i64 %72, 1152920405095219200
  %76 = and i64 %75, 1152920405095219200
  %77 = and i64 %72, -1152920405095219201
  %78 = or disjoint i64 %76, %77
  store i64 %78, ptr %71, align 8
  %79 = icmp eq i64 %76, 0
  br i1 %79, label %80, label %_ZN4cvc58internal12NodeTemplateILb1EED2Ev.exit11, !prof !10

80:                                               ; preds = %74
  invoke void @_ZN4cvc58internal4expr9NodeValue15markForDeletionEv(ptr noundef nonnull align 8 dereferenceable(24) %71)
          to label %_ZN4cvc58internal12NodeTemplateILb1EED2Ev.exit11 unwind label %81

81:                                               ; preds = %80
  %82 = landingpad { ptr, i32 }
          catch ptr null
  %83 = extractvalue { ptr, i32 } %82, 0
  call void @__clang_call_terminate(ptr %83) #21
  unreachable

84:                                               ; preds = %54, %41
  %85 = landingpad { ptr, i32 }
          cleanup
  call void @_ZN4cvc58internal12NodeTemplateILb1EED2Ev(ptr noundef nonnull align 8 dereferenceable(8) %3) #22
  call void @llvm.lifetime.end.p0(i64 8, ptr nonnull %3) #22
  br label %88

86:                                               ; preds = %_ZN4cvc58internal12NodeTemplateILb1EED2Ev.exit
  %87 = landingpad { ptr, i32 }
          cleanup
  call void @_ZN4cvc58internal12NodeTemplateILb1EED2Ev(ptr noundef nonnull align 8 dereferenceable(8) %4) #22
  br label %88

_ZN4cvc58internal12NodeTemplateILb1EED2Ev.exit11: ; preds = %80, %74, %69, %2
  %.04 = phi i32 [ -1, %2 ], [ %70, %69 ], [ %70, %74 ], [ %70, %80 ]
  ret i32 %.04

88:                                               ; preds = %86, %84
  %.pn = phi { ptr, i32 } [ %87, %86 ], [ %85, %84 ]
  resume { ptr, i32 } %.pn
}